target datalayout = "e-m:e-p270:32:32-p271:32:32-p272:64:64-i64:64-i128:128-f80:128-n8:16:32:64-S128"
target triple = "x86_64-unknown-linux-gnu"

%"class.icu_75::UnicodeSetIterator" = type { %"class.icu_75::UObject", i32, i32, ptr, ptr, i32, i32, i32, i32, i32, i32, ptr }
%"class.icu_75::UObject" = type { ptr }

; Function Attrs: mustprogress uwtable
define void @_ZN6icu_7518UnicodeSetIterator9loadRangeEi(ptr noundef nonnull align 8 dereferenceable(64) %this, i32 noundef %iRange) #1 align 2 {
entry:
  %this.addr = alloca ptr, align 8
  %iRange.addr = alloca i32, align 4
  store ptr %this, ptr %this.addr, align 8
  store i32 %iRange, ptr %iRange.addr, align 4
  %this1 = load ptr, ptr %this.addr, align 8
  %set = getelementptr inbounds %"class.icu_75::UnicodeSetIterator", ptr %this1, i32 0, i32 4
  %0 = load ptr, ptr %set, align 8
  %1 = load i32, ptr %iRange.addr, align 4
  %call = call noundef i32 @_ZNK6icu_7510UnicodeSet13getRangeStartEi(ptr noundef nonnull align 8 dereferenceable(200) %0, i32 noundef %1)
  %nextElement = getelementptr inbounds %"class.icu_75::UnicodeSetIterator", ptr %this1, i32 0, i32 8
  store i32 %call, ptr %nextElement, align 4
  %set2 = getelementptr inbounds %"class.icu_75::UnicodeSetIterator", ptr %this1, i32 0, i32 4
  %2 = load ptr, ptr %set2, align 8
  %3 = load i32, ptr %iRange.addr, align 4
  %call3 = call noundef i32 @_ZNK6icu_7510UnicodeSet11getRangeEndEi(ptr noundef nonnull align 8 dereferenceable(200) %2, i32 noundef %3)
  %endElement = getelementptr inbounds %"class.icu_75::UnicodeSetIterator", ptr %this1, i32 0, i32 7
  store i32 %call3, ptr %endElement, align 8
  ret void
}

; Function Attrs: mustprogress uwtable
define void @_ZN6icu_7518UnicodeSetIterator5resetEv(ptr noundef nonnull align 8 dereferenceable(64) %this) #1 align 2 {
entry:
  %this.addr = alloca ptr, align 8
  store ptr %this, ptr %this.addr, align 8
  %this1 = load ptr, ptr %this.addr, align 8
  %set = getelementptr inbounds %"class.icu_75::UnicodeSetIterator", ptr %this1, i32 0, i32 4
  %0 = load ptr, ptr %set, align 8
  %cmp = icmp eq ptr %0, null
  br i1 %cmp, label %if.then, label %if.else

if.then:                                          ; preds = %entry
  %endRange = getelementptr inbounds %"class.icu_75::UnicodeSetIterator", ptr %this1, i32 0, i32 5
  store i32 -1, ptr %endRange, align 8
  %stringCount = getelementptr inbounds %"class.icu_75::UnicodeSetIterator", ptr %this1, i32 0, i32 10
  store i32 0, ptr %stringCount, align 4
  br label %if.end

if.else:                                          ; preds = %entry
  %set2 = getelementptr inbounds %"class.icu_75::UnicodeSetIterator", ptr %this1, i32 0, i32 4
  %1 = load ptr, ptr %set2, align 8
  %call = call noundef i32 @_ZNK6icu_7510UnicodeSet13getRangeCountEv(ptr noundef nonnull align 8 dereferenceable(200) %1)
  %sub = sub nsw i32 %call, 1
  %endRange3 = getelementptr inbounds %"class.icu_75::UnicodeSetIterator", ptr %this1, i32 0, i32 5
  store i32 %sub, ptr %endRange3, align 8
  %set4 = getelementptr inbounds %"class.icu_75::UnicodeSetIterator", ptr %this1, i32 0, i32 4
  %2 = load ptr, ptr %set4, align 8
  %call5 = call noundef i32 @_ZNK6icu_7510UnicodeSet11stringsSizeEv(ptr noundef nonnull align 8 dereferenceable(200) %2)
  %stringCount6 = getelementptr inbounds %"class.icu_75::UnicodeSetIterator", ptr %this1, i32 0, i32 10
  store i32 %call5, ptr %stringCount6, align 4
  br label %if.end

if.end:                                           ; preds = %if.else, %if.then
  %range = getelementptr inbounds %"class.icu_75::UnicodeSetIterator", ptr %this1, i32 0, i32 6
  store i32 0, ptr %range, align 4
  %endElement = getelementptr inbounds %"class.icu_75::UnicodeSetIterator", ptr %this1, i32 0, i32 7
  store i32 -1, ptr %endElement, align 8
  %nextElement = getelementptr inbounds %"class.icu_75::UnicodeSetIterator", ptr %this1, i32 0, i32 8
  store i32 0, ptr %nextElement, align 4
  %endRange7 = getelementptr inbounds %"class.icu_75::UnicodeSetIterator", ptr %this1, i32 0, i32 5
  %3 = load i32, ptr %endRange7, align 8
  %cmp8 = icmp sge i32 %3, 0
  br i1 %cmp8, label %if.then9, label %if.end11

if.then9:                                         ; preds = %if.end
  %range10 = getelementptr inbounds %"class.icu_75::UnicodeSetIterator", ptr %this1, i32 0, i32 6
  %4 = load i32, ptr %range10, align 4
  call void @_ZN6icu_7518UnicodeSetIterator9loadRangeEi(ptr noundef nonnull align 8 dereferenceable(64) %this1, i32 noundef %4)
  br label %if.end11

if.end11:                                         ; preds = %if.then9, %if.end
  %nextString = getelementptr inbounds %"class.icu_75::UnicodeSetIterator", ptr %this1, i32 0, i32 9
  store i32 0, ptr %nextString, align 8
  %string = getelementptr inbounds %"class.icu_75::UnicodeSetIterator", ptr %this1, i32 0, i32 3
  store ptr null, ptr %string, align 8
  ret void
}