; Function Attrs: mustprogress uwtable
define void @_ZN6icu_7518UnicodeSetIterator5resetEv(ptr nocapture noundef nonnull align 8 dereferenceable(64) %this) local_unnamed_addr #1 align 2 {
entry:
  %set = getelementptr inbounds i8, ptr %this, i64 24
  %0 = load ptr, ptr %set, align 8
  %cmp = icmp eq ptr %0, null
  br i1 %cmp, label %if.end.thread, label %if.end

if.end.thread:                                    ; preds = %entry
  %endRange = getelementptr inbounds i8, ptr %this, i64 32
  %1 = getelementptr inbounds i8, ptr %this, i64 52
  store i32 0, ptr %1, align 4
  store <4 x i32> <i32 -1, i32 0, i32 -1, i32 0>, ptr %endRange, align 8
  br label %if.end11

if.end:                                           ; preds = %entry
  %call = tail call noundef i32 @_ZNK6icu_7510UnicodeSet13getRangeCountEv(ptr noundef nonnull align 8 dereferenceable(200) %0)
  %sub = add nsw i32 %call, -1
  %endRange3 = getelementptr inbounds i8, ptr %this, i64 32
  store i32 %sub, ptr %endRange3, align 8
  %2 = load ptr, ptr %set, align 8
  %call5 = tail call noundef i32 @_ZNK6icu_7510UnicodeSet11stringsSizeEv(ptr noundef nonnull align 8 dereferenceable(200) %2)
  %.pre = load i32, ptr %endRange3, align 8
  %3 = icmp sgt i32 %.pre, -1
  %4 = getelementptr inbounds i8, ptr %this, i64 52
  store i32 %call5, ptr %4, align 4
  %range = getelementptr inbounds i8, ptr %this, i64 36
  store i32 0, ptr %range, align 4
  %endElement = getelementptr inbounds i8, ptr %this, i64 40
  store i32 -1, ptr %endElement, align 8
  %nextElement = getelementptr inbounds i8, ptr %this, i64 44
  store i32 0, ptr %nextElement, align 4
  br i1 %3, label %if.then9, label %if.end11

if.then9:                                         ; preds = %if.end
  %5 = load ptr, ptr %set, align 8
  %call.i = tail call noundef i32 @_ZNK6icu_7510UnicodeSet13getRangeStartEi(ptr noundef nonnull align 8 dereferenceable(200) %5, i32 noundef 0)
  store i32 %call.i, ptr %nextElement, align 4
  %6 = load ptr, ptr %set, align 8
  %call3.i = tail call noundef i32 @_ZNK6icu_7510UnicodeSet11getRangeEndEi(ptr noundef nonnull align 8 dereferenceable(200) %6, i32 noundef 0)
  store i32 %call3.i, ptr %endElement, align 8
  br label %if.end11

if.end11:                                         ; preds = %if.end.thread, %if.then9, %if.end
  %nextString = getelementptr inbounds i8, ptr %this, i64 48
  store i32 0, ptr %nextString, align 8
  %string = getelementptr inbounds i8, ptr %this, i64 16
  store ptr null, ptr %string, align 8
  ret void
}